; Function Attrs: mustprogress nounwind uwtable
define internal void @_ZN9Stockfish12_GLOBAL__N_16TBFileD1Ev(ptr noundef nonnull align 8 dereferenceable(288) %0) unnamed_addr #3 align 2 {
  store ptr getelementptr inbounds ({ [5 x ptr], [5 x ptr] }, ptr @_ZTVN9Stockfish12_GLOBAL__N_16TBFileE, i64 0, i32 0, i64 3), ptr %0, align 8
  %2 = getelementptr inbounds i8, ptr %0, i64 288
  store ptr getelementptr inbounds ({ [5 x ptr], [5 x ptr] }, ptr @_ZTVN9Stockfish12_GLOBAL__N_16TBFileE, i64 0, i32 1, i64 3), ptr %2, align 8
  %3 = getelementptr inbounds i8, ptr %0, i64 256
  tail call void @_ZNSt7__cxx1112basic_stringIcSt11char_traitsIcESaIcEED1Ev(ptr noundef nonnull align 8 dereferenceable(32) %3) #24
  tail call void @_ZNSt14basic_ifstreamIcSt11char_traitsIcEED2Ev(ptr noundef nonnull align 8 dereferenceable(256) %0, ptr noundef nonnull getelementptr inbounds ([6 x ptr], ptr @_ZTTN9Stockfish12_GLOBAL__N_16TBFileE, i64 0, i64 1)) #24
  tail call void @_ZNSt9basic_iosIcSt11char_traitsIcEED2Ev(ptr noundef nonnull align 8 dereferenceable(264) %2) #24
  ret void
}